target datalayout = "e-m:e-p270:32:32-p271:32:32-p272:64:64-i64:64-i128:128-f80:128-n8:16:32:64-S128"
target triple = "x86_64-pc-linux-gnu"

; Function Attrs: nounwind uwtable
define internal void @copy_s32(ptr noundef %0, ptr noundef %1, ptr noundef %2, i32 noundef %3, i32 noundef %4) #0 {
  %6 = alloca ptr, align 8
  %7 = alloca ptr, align 8
  %8 = alloca ptr, align 8
  %9 = alloca i32, align 4
  %10 = alloca i32, align 4
  %11 = alloca i32, align 4
  %12 = alloca i64, align 8
  store ptr %0, ptr %6, align 8, !tbaa !86
  store ptr %1, ptr %7, align 8, !tbaa !86
  store ptr %2, ptr %8, align 8, !tbaa !86
  store i32 %3, ptr %9, align 4, !tbaa !11
  store i32 %4, ptr %10, align 4, !tbaa !11
  call void @llvm.lifetime.start.p0(i64 4, ptr %11) #9
  call void @llvm.lifetime.start.p0(i64 8, ptr %12) #9
  %13 = load ptr, ptr %8, align 8, !tbaa !86
  %14 = load i32, ptr %9, align 4, !tbaa !11
  %15 = sext i32 %14 to i64
  %16 = getelementptr inbounds i32, ptr %13, i64 %15
  %17 = load i32, ptr %16, align 4, !tbaa !11
  %18 = sext i32 %17 to i64
  store i64 %18, ptr %12, align 8, !tbaa !37
  store i32 0, ptr %11, align 4, !tbaa !11
  br label %19

19:                                               ; preds = %39, %5
  %20 = load i32, ptr %11, align 4, !tbaa !11
  %21 = load i32, ptr %10, align 4, !tbaa !11
  %22 = icmp slt i32 %20, %21
  br i1 %22, label %23, label %42

23:                                               ; preds = %19
  %24 = load i64, ptr %12, align 8, !tbaa !37
  %25 = load ptr, ptr %7, align 8, !tbaa !86
  %26 = load i32, ptr %11, align 4, !tbaa !11
  %27 = sext i32 %26 to i64
  %28 = getelementptr inbounds i32, ptr %25, i64 %27
  %29 = load i32, ptr %28, align 4, !tbaa !11
  %30 = sext i32 %29 to i64
  %31 = mul nsw i64 %24, %30
  %32 = add nsw i64 %31, 16384
  %33 = ashr i64 %32, 15
  %34 = trunc i64 %33 to i32
  %35 = load ptr, ptr %6, align 8, !tbaa !86
  %36 = load i32, ptr %11, align 4, !tbaa !11
  %37 = sext i32 %36 to i64
  %38 = getelementptr inbounds i32, ptr %35, i64 %37
  store i32 %34, ptr %38, align 4, !tbaa !11
  br label %39

39:                                               ; preds = %23
  %40 = load i32, ptr %11, align 4, !tbaa !11
  %41 = add nsw i32 %40, 1
  store i32 %41, ptr %11, align 4, !tbaa !11
  br label %19, !llvm.loop !99

42:                                               ; preds = %19
  call void @llvm.lifetime.end.p0(i64 8, ptr %12) #9
  call void @llvm.lifetime.end.p0(i64 4, ptr %11) #9
  ret void
}