; Function Attrs: nofree norecurse nosync nounwind memory(argmem: readwrite) uwtable
define internal void @copy_s32(ptr noundef writeonly captures(none) %0, ptr noundef readonly captures(none) %1, ptr noundef readonly captures(none) %2, i32 noundef %3, i32 noundef %4) #0 {
  %6 = sext i32 %3 to i64
  %7 = getelementptr inbounds i32, ptr %2, i64 %6
  %8 = load i32, ptr %7, align 4, !tbaa !34
  %9 = sext i32 %8 to i64
  %10 = icmp sgt i32 %4, 0
  br i1 %10, label %.lr.ph.preheader, label %._crit_edge

.lr.ph.preheader:                                 ; preds = %5
  %wide.trip.count = zext nneg i32 %4 to i64
  br label %.lr.ph

.lr.ph:                                           ; preds = %.lr.ph.preheader, %.lr.ph
  %indvars.iv = phi i64 [ 0, %.lr.ph.preheader ], [ %indvars.iv.next, %.lr.ph ]
  %11 = getelementptr inbounds nuw i32, ptr %1, i64 %indvars.iv
  %12 = load i32, ptr %11, align 4, !tbaa !34
  %13 = sext i32 %12 to i64
  %14 = mul nsw i64 %13, %9
  %15 = add nsw i64 %14, 16384
  %16 = lshr i64 %15, 15
  %17 = trunc i64 %16 to i32
  %18 = getelementptr inbounds nuw i32, ptr %0, i64 %indvars.iv
  store i32 %17, ptr %18, align 4, !tbaa !34
  %indvars.iv.next = add nuw nsw i64 %indvars.iv, 1
  %exitcond.not = icmp eq i64 %indvars.iv.next, %wide.trip.count
  br i1 %exitcond.not, label %._crit_edge, label %.lr.ph, !llvm.loop !86

._crit_edge:                                      ; preds = %.lr.ph, %5
  ret void
}